; Function Attrs: nounwind uwtable
define void @CRYPTO_gcm128_tag(ptr noundef %0, ptr noundef writeonly captures(none) %1, i64 noundef %2) local_unnamed_addr #0 {
  %4 = getelementptr inbounds nuw i8, ptr %0, i64 48
  %5 = load i64, ptr %4, align 8, !tbaa !12
  %6 = getelementptr inbounds nuw i8, ptr %0, i64 56
  %7 = load i64, ptr %6, align 8, !tbaa !12
  %8 = getelementptr inbounds nuw i8, ptr %0, i64 376
  %9 = load i32, ptr %8, align 8, !tbaa !19
  %.not.i = icmp eq i32 %9, 0
  br i1 %.not.i, label %26, label %10

10:                                               ; preds = %3
  %11 = add i32 %9, 15
  %12 = and i32 %11, -16
  %13 = getelementptr inbounds nuw i8, ptr %0, i64 400
  %14 = zext i32 %9 to i64
  %15 = getelementptr inbounds nuw i8, ptr %13, i64 %14
  %16 = sub i32 %12, %9
  %17 = zext i32 %16 to i64
  tail call void @llvm.memset.p0.i64(ptr nonnull align 1 %15, i8 0, i64 %17, i1 false)
  %18 = icmp eq i32 %12, 48
  br i1 %18, label %19, label %24

19:                                               ; preds = %10
  %20 = getelementptr inbounds nuw i8, ptr %0, i64 360
  %21 = load ptr, ptr %20, align 8, !tbaa !29
  %22 = getelementptr inbounds nuw i8, ptr %0, i64 64
  %23 = getelementptr inbounds nuw i8, ptr %0, i64 96
  tail call void %21(ptr noundef nonnull %22, ptr noundef nonnull %23, ptr noundef nonnull %13, i64 noundef 48) #6
  br label %24

24:                                               ; preds = %19, %10
  %.048.i = phi i32 [ 0, %19 ], [ %12, %10 ]
  %25 = zext i32 %.048.i to i64
  br label %CRYPTO_gcm128_finish.exit

26:                                               ; preds = %3
  %27 = getelementptr inbounds nuw i8, ptr %0, i64 380
  %28 = load i32, ptr %27, align 4, !tbaa !18
  %.not54.i = icmp eq i32 %28, 0
  br i1 %.not54.i, label %CRYPTO_gcm128_finish.exit, label %29

29:                                               ; preds = %26
  %30 = getelementptr inbounds nuw i8, ptr %0, i64 368
  %31 = load ptr, ptr %30, align 8, !tbaa !22
  %32 = getelementptr inbounds nuw i8, ptr %0, i64 64
  %33 = getelementptr inbounds nuw i8, ptr %0, i64 96
  tail call void %31(ptr noundef nonnull %32, ptr noundef nonnull %33) #6
  br label %CRYPTO_gcm128_finish.exit

CRYPTO_gcm128_finish.exit:                        ; preds = %24, %26, %29
  %.1.i = phi i64 [ %25, %24 ], [ 0, %29 ], [ 0, %26 ]
  %34 = shl i64 %7, 3
  %35 = shl i64 %5, 3
  %36 = tail call i64 asm "bswapq $0", "=r,0,~{dirflag},~{fpsr},~{flags}"(i64 %35) #7, !srcloc !65
  %37 = tail call i64 asm "bswapq $0", "=r,0,~{dirflag},~{fpsr},~{flags}"(i64 %34) #7, !srcloc !66
  %38 = getelementptr inbounds nuw i8, ptr %0, i64 400
  %39 = getelementptr inbounds nuw i8, ptr %38, i64 %.1.i
  store i64 %36, ptr %39, align 1
  %.sroa.4.0..sroa_idx.i = getelementptr inbounds nuw i8, ptr %39, i64 8
  store i64 %37, ptr %.sroa.4.0..sroa_idx.i, align 1
  %40 = add nuw nsw i64 %.1.i, 16
  %41 = getelementptr inbounds nuw i8, ptr %0, i64 360
  %42 = load ptr, ptr %41, align 8, !tbaa !29
  %43 = getelementptr inbounds nuw i8, ptr %0, i64 64
  %44 = getelementptr inbounds nuw i8, ptr %0, i64 96
  %45 = and i64 %40, 4294967295
  tail call void %42(ptr noundef nonnull %43, ptr noundef nonnull %44, ptr noundef nonnull %38, i64 noundef %45) #6
  %46 = getelementptr inbounds nuw i8, ptr %0, i64 32
  %47 = load i64, ptr %46, align 8, !tbaa !12
  %48 = load i64, ptr %43, align 8, !tbaa !12
  %49 = xor i64 %48, %47
  store i64 %49, ptr %43, align 8, !tbaa !12
  %50 = getelementptr inbounds nuw i8, ptr %0, i64 40
  %51 = load i64, ptr %50, align 8, !tbaa !12
  %52 = getelementptr inbounds nuw i8, ptr %0, i64 72
  %53 = load i64, ptr %52, align 8, !tbaa !12
  %54 = xor i64 %53, %51
  store i64 %54, ptr %52, align 8, !tbaa !12
  %55 = tail call i64 @llvm.umin.i64(i64 %2, i64 16)
  tail call void @llvm.memcpy.p0.p0.i64(ptr align 1 %1, ptr nonnull align 8 %43, i64 %55, i1 false)
  ret void
}